S'b5787d9fda88a6bc5d08dc51e6ec44c36b385b6f3f53ca08f7c4bf936568a976597fa49f9d68b1e5dac0cbe7bb934095ecc4986a7493e0be7629df0dd850d191,2f4c777183afdd71788dcee5241409e6129f8201ef452e82dd8ebdf7d570e65f13fa46fdcc46942dd23b3cf99b448000f44af6d20800121c1655184eff1e99c7'
p0
.